target datalayout = "e-m:e-p270:32:32-p271:32:32-p272:64:64-i64:64-i128:128-f80:128-n8:16:32:64-S128"
target triple = "x86_64-pc-linux-gnu"

%struct.MpegEncContext = type { ptr, i32, i32, i32, [12 x i32], i32, %struct.ScanTable, %struct.ScanTable, [64 x i8], [64 x i8], ptr, ptr, i32, i32, i32, i32, i32, i32, i32, i32, i32, i32, i32, i32, i32, i32, i32, i32, i32, i32, i32, i32, i64, i64, ptr, %struct.BufferPoolContext, i32, i32, %union.anon, i32, %struct.MPVWorkPicture, %struct.MPVWorkPicture, %struct.MPVWorkPicture, i32, [3 x i32], ptr, [3 x ptr], ptr, ptr, ptr, ptr, ptr, ptr, [3 x ptr], i32, ptr, ptr, ptr, ptr, %struct.ScratchpadContext, i32, i32, i32, i32, i32, i32, %struct.BlockDSPContext, %struct.H264ChromaContext, %struct.HpelDSPContext, %struct.IDCTDSPContext, %struct.QpelDSPContext, %struct.VideoDSPContext, %struct.H263DSPContext, ptr, [2 x [2 x ptr]], i32, i32, [2 x [4 x [2 x i32]]], [2 x [2 x i32]], [2 x [2 x [2 x i32]]], [2 x [64 x i16]], i32, i32, i32, i32, i32, [6 x i32], [6 x i32], [3 x ptr], ptr, [64 x i16], [64 x i16], [64 x i16], [64 x i16], i32, i32, %struct.GetBitContext, i32, i32, i32, i32, i32, i32, i32, i32, i32, i32, i32, i32, i32, i32, i32, i64, i64, i16, i16, i16, i16, i32, i32, i32, i32, i32, i32, i32, i32, i32, [3 x i32], i32, i32, i32, i32, i32, i32, %struct.GetBitContext, i32, [2 x [2 x i32]], i32, i32, i32, i32, i32, i32, i32, i32, i32, i32, i32, i32, i32, i32, [2 x i32], i32, i32, ptr, ptr, ptr, ptr, ptr, i32, i32, %struct.ERContext }
%struct.ScanTable = type { ptr, [64 x i8], [64 x i8] }
%struct.BufferPoolContext = type { ptr, ptr, ptr, ptr, ptr, i32, i32, i32 }
%union.anon = type { [32 x ptr] }
%struct.MPVWorkPicture = type { [3 x ptr], [3 x i64], ptr, ptr, [2 x ptr], ptr, ptr, [2 x ptr], i32 }
%struct.ScratchpadContext = type { ptr, ptr, %union.anon.0, i32 }
%union.anon.0 = type { ptr }
%struct.BlockDSPContext = type { ptr, ptr, [2 x ptr] }
%struct.H264ChromaContext = type { [4 x ptr], [4 x ptr] }
%struct.HpelDSPContext = type { [4 x [4 x ptr]], [4 x [4 x ptr]], [4 x [4 x ptr]], [4 x ptr] }
%struct.IDCTDSPContext = type { ptr, ptr, ptr, ptr, ptr, ptr, [64 x i8], i32, i32 }
%struct.QpelDSPContext = type { [2 x [16 x ptr]], [2 x [16 x ptr]], [2 x [16 x ptr]] }
%struct.VideoDSPContext = type { ptr, ptr }
%struct.H263DSPContext = type { ptr, ptr }
%struct.GetBitContext = type { ptr, ptr, i32, i32, i32 }
%struct.ERContext = type { ptr, ptr, i32, ptr, i32, i32, i32, i64, i64, i32, i32, ptr, ptr, [3 x ptr], ptr, ptr, [2 x [4 x [2 x i32]]], %struct.ERPicture, %struct.ERPicture, %struct.ERPicture, [2 x ptr], [2 x ptr], i16, i16, i32, i32, ptr, ptr }
%struct.ERPicture = type { ptr, ptr, ptr, [2 x ptr], [2 x ptr], ptr, i32 }
%struct.AVCodecContext = type { ptr, i32, i32, ptr, i32, i32, ptr, ptr, ptr, i64, i32, i32, ptr, i32, %struct.AVRational, %struct.AVRational, %struct.AVRational, i32, i32, i32, i32, i32, %struct.AVRational, i32, i32, i32, i32, i32, i32, i32, i32, i32, i32, i32, ptr, ptr, i32, float, float, float, float, float, float, float, float, float, i32, i32, i32, i32, i32, i32, i32, i32, i32, i32, i32, i32, ptr, ptr, ptr, i32, i32, i32, i32, i32, i32, i32, i32, i32, i32, %struct.AVChannelLayout, i32, i32, i32, i32, i32, i32, i32, i32, ptr, i32, i32, i32, float, float, i32, i32, i32, i32, i32, ptr, i64, i64, float, float, i32, i32, ptr, ptr, i32, i32, i32, i32, i32, ptr, ptr, ptr, ptr, i32, i32, [8 x i64], i32, i32, i32, i32, i32, i32, i32, ptr, ptr, i32, i32, i32, i32, i32, i32, i32, i32, i32, i32, ptr, ptr, i32, i32, ptr, ptr, ptr, ptr, i32, i32, i64, i32, i32, i64, ptr, i64, ptr, i32, ptr, i32 }
%struct.AVRational = type { i32, i32 }
%struct.AVChannelLayout = type { i32, i32, %union.anon.1, ptr }
%union.anon.1 = type { i64 }
%struct.MPVPicture = type { ptr, ptr, ptr, [2 x ptr], [2 x ptr], ptr, ptr, ptr, [2 x ptr], ptr, i32, i32, i32, i32, i32, i32, i32, i32, i32, i32, %struct.ThreadProgress }
%struct.ThreadProgress = type { i32, i32, %union.pthread_mutex_t, %union.pthread_cond_t }
%union.pthread_mutex_t = type { %struct.__pthread_mutex_s }
%struct.__pthread_mutex_s = type { i32, i32, i32, i32, i32, i16, i16, %struct.__pthread_internal_list }
%struct.__pthread_internal_list = type { ptr, ptr }
%union.pthread_cond_t = type { %struct.__pthread_cond_s }
%struct.__pthread_cond_s = type { %union.__atomic_wide_counter, %union.__atomic_wide_counter, [2 x i32], [2 x i32], i32, i32, [2 x i32] }
%union.__atomic_wide_counter = type { i64 }
%struct.AVFrame = type { [8 x ptr], [8 x i32], ptr, i32, i32, i32, i32, i32, %struct.AVRational, i64, i64, %struct.AVRational, i32, ptr, i32, i32, [8 x ptr], ptr, i32, ptr, i32, i32, i32, i32, i32, i32, i32, i64, ptr, i32, ptr, ptr, i64, i64, i64, i64, ptr, %struct.AVChannelLayout, i64 }

@.str.6 = private unnamed_addr constant [46 x i8] c"Attempt to start a frame outside SETUP state\0A\00", align 1

; Function Attrs: nounwind uwtable
define i32 @ff_mpv_frame_start(ptr noundef %0, ptr noundef %1) #3 {
  %3 = alloca i32, align 4
  %4 = alloca ptr, align 8
  %5 = alloca ptr, align 8
  %6 = alloca i32, align 4
  %7 = alloca i32, align 4
  store ptr %0, ptr %4, align 8, !tbaa !4
  store ptr %1, ptr %5, align 8, !tbaa !9
  call void @llvm.lifetime.start.p0(i64 4, ptr %6) #11
  %8 = load ptr, ptr %4, align 8, !tbaa !4
  %9 = getelementptr inbounds nuw %struct.MpegEncContext, ptr %8, i32 0, i32 54
  store i32 0, ptr %9, align 8, !tbaa !109
  %10 = load ptr, ptr %5, align 8, !tbaa !9
  %11 = call i32 @ff_thread_can_start_frame(ptr noundef %10)
  %12 = icmp ne i32 %11, 0
  br i1 %12, label %15, label %13

13:                                               ; preds = %2
  %14 = load ptr, ptr %5, align 8, !tbaa !9
  call void (ptr, i32, ptr, ...) @av_log(ptr noundef %14, i32 noundef 16, ptr noundef @.str.6)
  store i32 -558323010, ptr %3, align 4
  store i32 1, ptr %7, align 4
  br label %174

15:                                               ; preds = %2
  %16 = load ptr, ptr %4, align 8, !tbaa !4
  %17 = getelementptr inbounds nuw %struct.MpegEncContext, ptr %16, i32 0, i32 42
  call void @ff_mpv_unref_picture(ptr noundef %17)
  %18 = load ptr, ptr %4, align 8, !tbaa !4
  %19 = load ptr, ptr %4, align 8, !tbaa !4
  %20 = getelementptr inbounds nuw %struct.MpegEncContext, ptr %19, i32 0, i32 42
  %21 = load ptr, ptr %4, align 8, !tbaa !4
  %22 = getelementptr inbounds nuw %struct.MpegEncContext, ptr %21, i32 0, i32 62
  %23 = load i32, ptr %22, align 8, !tbaa !83
  %24 = icmp ne i32 %23, 3
  br i1 %24, label %25, label %31

25:                                               ; preds = %15
  %26 = load ptr, ptr %4, align 8, !tbaa !4
  %27 = getelementptr inbounds nuw %struct.MpegEncContext, ptr %26, i32 0, i32 63
  %28 = load i32, ptr %27, align 4, !tbaa !110
  %29 = icmp ne i32 %28, 0
  %30 = xor i1 %29, true
  br label %31

31:                                               ; preds = %25, %15
  %32 = phi i1 [ false, %15 ], [ %30, %25 ]
  %33 = zext i1 %32 to i32
  %34 = call i32 @alloc_picture(ptr noundef %18, ptr noundef %20, i32 noundef %33)
  store i32 %34, ptr %6, align 4, !tbaa !68
  %35 = load i32, ptr %6, align 4, !tbaa !68
  %36 = icmp slt i32 %35, 0
  br i1 %36, label %37, label %39

37:                                               ; preds = %31
  %38 = load i32, ptr %6, align 4, !tbaa !68
  store i32 %38, ptr %3, align 4
  store i32 1, ptr %7, align 4
  br label %174

39:                                               ; preds = %31
  %40 = load ptr, ptr %4, align 8, !tbaa !4
  %41 = getelementptr inbounds nuw %struct.MpegEncContext, ptr %40, i32 0, i32 140
  %42 = load i32, ptr %41, align 8, !tbaa !111
  %43 = icmp ne i32 %42, 0
  %44 = xor i1 %43, true
  %45 = xor i1 %44, true
  %46 = zext i1 %45 to i32
  %47 = mul nsw i32 16, %46
  %48 = load ptr, ptr %4, align 8, !tbaa !4
  %49 = getelementptr inbounds nuw %struct.MpegEncContext, ptr %48, i32 0, i32 42
  %50 = getelementptr inbounds nuw %struct.MPVWorkPicture, ptr %49, i32 0, i32 2
  %51 = load ptr, ptr %50, align 8, !tbaa !112
  %52 = getelementptr inbounds nuw %struct.MPVPicture, ptr %51, i32 0, i32 0
  %53 = load ptr, ptr %52, align 8, !tbaa !88
  %54 = getelementptr inbounds nuw %struct.AVFrame, ptr %53, i32 0, i32 21
  %55 = load i32, ptr %54, align 4, !tbaa !113
  %56 = or i32 %55, %47
  store i32 %56, ptr %54, align 4, !tbaa !113
  %57 = load ptr, ptr %4, align 8, !tbaa !4
  %58 = getelementptr inbounds nuw %struct.MpegEncContext, ptr %57, i32 0, i32 150
  %59 = load i32, ptr %58, align 8, !tbaa !114
  %60 = icmp ne i32 %59, 0
  br i1 %60, label %67, label %61

61:                                               ; preds = %39
  %62 = load ptr, ptr %4, align 8, !tbaa !4
  %63 = getelementptr inbounds nuw %struct.MpegEncContext, ptr %62, i32 0, i32 135
  %64 = load i32, ptr %63, align 8, !tbaa !115
  %65 = icmp ne i32 %64, 0
  %66 = xor i1 %65, true
  br label %67

67:                                               ; preds = %61, %39
  %68 = phi i1 [ false, %39 ], [ %66, %61 ]
  %69 = zext i1 %68 to i32
  %70 = mul nsw i32 8, %69
  %71 = load ptr, ptr %4, align 8, !tbaa !4
  %72 = getelementptr inbounds nuw %struct.MpegEncContext, ptr %71, i32 0, i32 42
  %73 = getelementptr inbounds nuw %struct.MPVWorkPicture, ptr %72, i32 0, i32 2
  %74 = load ptr, ptr %73, align 8, !tbaa !112
  %75 = getelementptr inbounds nuw %struct.MPVPicture, ptr %74, i32 0, i32 0
  %76 = load ptr, ptr %75, align 8, !tbaa !88
  %77 = getelementptr inbounds nuw %struct.AVFrame, ptr %76, i32 0, i32 21
  %78 = load i32, ptr %77, align 4, !tbaa !113
  %79 = or i32 %78, %70
  store i32 %79, ptr %77, align 4, !tbaa !113
  %80 = load ptr, ptr %4, align 8, !tbaa !4
  %81 = getelementptr inbounds nuw %struct.MpegEncContext, ptr %80, i32 0, i32 137
  %82 = load i32, ptr %81, align 4, !tbaa !85
  %83 = icmp ne i32 %82, 3
  %84 = zext i1 %83 to i32
  %85 = load ptr, ptr %4, align 8, !tbaa !4
  %86 = getelementptr inbounds nuw %struct.MpegEncContext, ptr %85, i32 0, i32 42
  %87 = getelementptr inbounds nuw %struct.MPVWorkPicture, ptr %86, i32 0, i32 2
  %88 = load ptr, ptr %87, align 8, !tbaa !112
  %89 = getelementptr inbounds nuw %struct.MPVPicture, ptr %88, i32 0, i32 14
  store i32 %84, ptr %89, align 8, !tbaa !116
  %90 = load ptr, ptr %4, align 8, !tbaa !4
  %91 = getelementptr inbounds nuw %struct.MpegEncContext, ptr %90, i32 0, i32 62
  %92 = load i32, ptr %91, align 8, !tbaa !83
  %93 = load ptr, ptr %4, align 8, !tbaa !4
  %94 = getelementptr inbounds nuw %struct.MpegEncContext, ptr %93, i32 0, i32 42
  %95 = getelementptr inbounds nuw %struct.MPVWorkPicture, ptr %94, i32 0, i32 2
  %96 = load ptr, ptr %95, align 8, !tbaa !112
  %97 = getelementptr inbounds nuw %struct.MPVPicture, ptr %96, i32 0, i32 0
  %98 = load ptr, ptr %97, align 8, !tbaa !88
  %99 = getelementptr inbounds nuw %struct.AVFrame, ptr %98, i32 0, i32 7
  store i32 %92, ptr %99, align 8, !tbaa !117
  %100 = load ptr, ptr %4, align 8, !tbaa !4
  %101 = getelementptr inbounds nuw %struct.MpegEncContext, ptr %100, i32 0, i32 62
  %102 = load i32, ptr %101, align 8, !tbaa !83
  %103 = icmp eq i32 %102, 1
  br i1 %103, label %104, label %114

104:                                              ; preds = %67
  %105 = load ptr, ptr %4, align 8, !tbaa !4
  %106 = getelementptr inbounds nuw %struct.MpegEncContext, ptr %105, i32 0, i32 42
  %107 = getelementptr inbounds nuw %struct.MPVWorkPicture, ptr %106, i32 0, i32 2
  %108 = load ptr, ptr %107, align 8, !tbaa !112
  %109 = getelementptr inbounds nuw %struct.MPVPicture, ptr %108, i32 0, i32 0
  %110 = load ptr, ptr %109, align 8, !tbaa !88
  %111 = getelementptr inbounds nuw %struct.AVFrame, ptr %110, i32 0, i32 21
  %112 = load i32, ptr %111, align 4, !tbaa !113
  %113 = or i32 %112, 2
  store i32 %113, ptr %111, align 4, !tbaa !113
  br label %124

114:                                              ; preds = %67
  %115 = load ptr, ptr %4, align 8, !tbaa !4
  %116 = getelementptr inbounds nuw %struct.MpegEncContext, ptr %115, i32 0, i32 42
  %117 = getelementptr inbounds nuw %struct.MPVWorkPicture, ptr %116, i32 0, i32 2
  %118 = load ptr, ptr %117, align 8, !tbaa !112
  %119 = getelementptr inbounds nuw %struct.MPVPicture, ptr %118, i32 0, i32 0
  %120 = load ptr, ptr %119, align 8, !tbaa !88
  %121 = getelementptr inbounds nuw %struct.AVFrame, ptr %120, i32 0, i32 21
  %122 = load i32, ptr %121, align 4, !tbaa !113
  %123 = and i32 %122, -3
  store i32 %123, ptr %121, align 4, !tbaa !113
  br label %124

124:                                              ; preds = %114, %104
  %125 = load ptr, ptr %4, align 8, !tbaa !4
  %126 = getelementptr inbounds nuw %struct.MpegEncContext, ptr %125, i32 0, i32 62
  %127 = load i32, ptr %126, align 8, !tbaa !83
  %128 = icmp ne i32 %127, 3
  br i1 %128, label %129, label %148

129:                                              ; preds = %124
  %130 = load ptr, ptr %4, align 8, !tbaa !4
  %131 = getelementptr inbounds nuw %struct.MpegEncContext, ptr %130, i32 0, i32 40
  %132 = load ptr, ptr %4, align 8, !tbaa !4
  %133 = getelementptr inbounds nuw %struct.MpegEncContext, ptr %132, i32 0, i32 41
  %134 = getelementptr inbounds nuw %struct.MPVWorkPicture, ptr %133, i32 0, i32 2
  %135 = load ptr, ptr %134, align 8, !tbaa !84
  call void @ff_mpv_workpic_from_pic(ptr noundef %131, ptr noundef %135)
  %136 = load ptr, ptr %4, align 8, !tbaa !4
  %137 = getelementptr inbounds nuw %struct.MpegEncContext, ptr %136, i32 0, i32 63
  %138 = load i32, ptr %137, align 4, !tbaa !110
  %139 = icmp ne i32 %138, 0
  br i1 %139, label %147, label %140

140:                                              ; preds = %129
  %141 = load ptr, ptr %4, align 8, !tbaa !4
  %142 = getelementptr inbounds nuw %struct.MpegEncContext, ptr %141, i32 0, i32 41
  %143 = load ptr, ptr %4, align 8, !tbaa !4
  %144 = getelementptr inbounds nuw %struct.MpegEncContext, ptr %143, i32 0, i32 42
  %145 = getelementptr inbounds nuw %struct.MPVWorkPicture, ptr %144, i32 0, i32 2
  %146 = load ptr, ptr %145, align 8, !tbaa !112
  call void @ff_mpv_workpic_from_pic(ptr noundef %142, ptr noundef %146)
  br label %147

147:                                              ; preds = %140, %129
  br label %148

148:                                              ; preds = %147, %124
  br label %149

149:                                              ; preds = %148
  br label %150

150:                                              ; preds = %149
  br label %151

151:                                              ; preds = %150
  %152 = load ptr, ptr %4, align 8, !tbaa !4
  %153 = call i32 @ff_mpv_alloc_dummy_frames(ptr noundef %152)
  store i32 %153, ptr %6, align 4, !tbaa !68
  %154 = load i32, ptr %6, align 4, !tbaa !68
  %155 = icmp slt i32 %154, 0
  br i1 %155, label %156, label %158

156:                                              ; preds = %151
  %157 = load i32, ptr %6, align 4, !tbaa !68
  store i32 %157, ptr %3, align 4
  store i32 1, ptr %7, align 4
  br label %174

158:                                              ; preds = %151
  %159 = load ptr, ptr %4, align 8, !tbaa !4
  %160 = getelementptr inbounds nuw %struct.MpegEncContext, ptr %159, i32 0, i32 10
  %161 = load ptr, ptr %160, align 8, !tbaa !11
  %162 = getelementptr inbounds nuw %struct.AVCodecContext, ptr %161, i32 0, i32 103
  %163 = load i32, ptr %162, align 4, !tbaa !118
  %164 = and i32 %163, 16777216
  %165 = icmp ne i32 %164, 0
  br i1 %165, label %166, label %173

166:                                              ; preds = %158
  %167 = load ptr, ptr %4, align 8, !tbaa !4
  %168 = getelementptr inbounds nuw %struct.MpegEncContext, ptr %167, i32 0, i32 42
  %169 = getelementptr inbounds nuw %struct.MPVWorkPicture, ptr %168, i32 0, i32 2
  %170 = load ptr, ptr %169, align 8, !tbaa !112
  %171 = getelementptr inbounds nuw %struct.MPVPicture, ptr %170, i32 0, i32 0
  %172 = load ptr, ptr %171, align 8, !tbaa !88
  call void @color_frame(ptr noundef %172, i32 noundef 128)
  br label %173

173:                                              ; preds = %166, %158
  store i32 0, ptr %3, align 4
  store i32 1, ptr %7, align 4
  br label %174

174:                                              ; preds = %173, %156, %37, %13
  call void @llvm.lifetime.end.p0(i64 4, ptr %6) #11
  %175 = load i32, ptr %3, align 4
  ret i32 %175
}