; Function Attrs: nounwind uwtable
define range(i32 -2147483648, 1) i32 @ff_mpv_frame_start(ptr noundef initializes((1400, 1404)) %0, ptr noundef %1) local_unnamed_addr #3 {
  %3 = getelementptr inbounds nuw i8, ptr %0, i64 1400
  store i32 0, ptr %3, align 8, !tbaa !100
  %4 = tail call i32 @ff_thread_can_start_frame(ptr noundef %1) #10
  %.not = icmp eq i32 %4, 0
  br i1 %.not, label %5, label %6

5:                                                ; preds = %2
  tail call void (ptr, i32, ptr, ...) @av_log(ptr noundef %1, i32 noundef 16, ptr noundef nonnull @.str.6) #10
  br label %69

6:                                                ; preds = %2
  %7 = getelementptr inbounds nuw i8, ptr %0, i64 1160
  tail call void @ff_mpv_unref_picture(ptr noundef nonnull %7) #10
  %8 = getelementptr inbounds nuw i8, ptr %0, i64 1480
  %9 = load i32, ptr %8, align 8, !tbaa !77
  %.not35 = icmp eq i32 %9, 3
  br i1 %.not35, label %14, label %10

10:                                               ; preds = %6
  %11 = getelementptr inbounds nuw i8, ptr %0, i64 1484
  %12 = load i32, ptr %11, align 4, !tbaa !101
  %.not36 = icmp eq i32 %12, 0
  %13 = zext i1 %.not36 to i32
  br label %14

14:                                               ; preds = %10, %6
  %15 = phi i32 [ 0, %6 ], [ %13, %10 ]
  %16 = tail call fastcc i32 @alloc_picture(ptr noundef nonnull %0, ptr noundef nonnull %7, i32 noundef %15)
  %17 = icmp slt i32 %16, 0
  br i1 %17, label %69, label %18

18:                                               ; preds = %14
  %19 = getelementptr inbounds nuw i8, ptr %0, i64 4224
  %20 = load i32, ptr %19, align 8, !tbaa !102
  %.not37 = icmp eq i32 %20, 0
  %21 = select i1 %.not37, i32 0, i32 16
  %22 = getelementptr inbounds nuw i8, ptr %0, i64 1208
  %23 = load ptr, ptr %22, align 8, !tbaa !103
  %24 = load ptr, ptr %23, align 8, !tbaa !82
  %25 = getelementptr inbounds nuw i8, ptr %24, i64 276
  %26 = load i32, ptr %25, align 4, !tbaa !104
  %27 = or i32 %26, %21
  %28 = getelementptr inbounds nuw i8, ptr %0, i64 4264
  %29 = load i32, ptr %28, align 8, !tbaa !105
  %.not38 = icmp eq i32 %29, 0
  br i1 %.not38, label %30, label %34

30:                                               ; preds = %18
  %31 = getelementptr inbounds nuw i8, ptr %0, i64 4192
  %32 = load i32, ptr %31, align 8, !tbaa !106
  %.not39 = icmp eq i32 %32, 0
  %33 = select i1 %.not39, i32 8, i32 0
  br label %34

34:                                               ; preds = %30, %18
  %35 = phi i32 [ 0, %18 ], [ %33, %30 ]
  %36 = or i32 %35, %27
  %37 = getelementptr inbounds nuw i8, ptr %0, i64 4212
  %38 = load i32, ptr %37, align 4, !tbaa !79
  %39 = icmp ne i32 %38, 3
  %40 = zext i1 %39 to i32
  %41 = getelementptr inbounds nuw i8, ptr %23, i64 120
  store i32 %40, ptr %41, align 8, !tbaa !107
  %42 = load i32, ptr %8, align 8, !tbaa !77
  %43 = getelementptr inbounds nuw i8, ptr %24, i64 120
  store i32 %42, ptr %43, align 8, !tbaa !108
  %44 = icmp eq i32 %42, 1
  br i1 %44, label %.thread, label %46

.thread:                                          ; preds = %34
  %45 = or i32 %36, 2
  store i32 %45, ptr %25, align 4, !tbaa !104
  br label %48

46:                                               ; preds = %34
  %47 = and i32 %36, -3
  store i32 %47, ptr %25, align 4, !tbaa !104
  %.not40 = icmp eq i32 %42, 3
  br i1 %.not40, label %57, label %48

48:                                               ; preds = %.thread, %46
  %49 = getelementptr inbounds nuw i8, ptr %0, i64 920
  %50 = getelementptr inbounds nuw i8, ptr %0, i64 1088
  %51 = load ptr, ptr %50, align 8, !tbaa !78
  tail call void @ff_mpv_workpic_from_pic(ptr noundef nonnull %49, ptr noundef %51) #10
  %52 = getelementptr inbounds nuw i8, ptr %0, i64 1484
  %53 = load i32, ptr %52, align 4, !tbaa !101
  %.not41 = icmp eq i32 %53, 0
  br i1 %.not41, label %54, label %57

54:                                               ; preds = %48
  %55 = getelementptr inbounds nuw i8, ptr %0, i64 1040
  %56 = load ptr, ptr %22, align 8, !tbaa !103
  tail call void @ff_mpv_workpic_from_pic(ptr noundef nonnull %55, ptr noundef %56) #10
  br label %57

57:                                               ; preds = %46, %54, %48
  %58 = tail call i32 @ff_mpv_alloc_dummy_frames(ptr noundef nonnull %0)
  %59 = icmp slt i32 %58, 0
  br i1 %59, label %69, label %60

60:                                               ; preds = %57
  %61 = getelementptr inbounds nuw i8, ptr %0, i64 472
  %62 = load ptr, ptr %61, align 8, !tbaa !4
  %63 = getelementptr inbounds nuw i8, ptr %62, i64 524
  %64 = load i32, ptr %63, align 4, !tbaa !109
  %65 = and i32 %64, 16777216
  %.not42 = icmp eq i32 %65, 0
  br i1 %.not42, label %69, label %66

66:                                               ; preds = %60
  %67 = load ptr, ptr %22, align 8, !tbaa !103
  %68 = load ptr, ptr %67, align 8, !tbaa !82
  tail call fastcc void @color_frame(ptr noundef %68, i32 noundef 128)
  br label %69

69:                                               ; preds = %60, %66, %57, %14, %5
  %.0 = phi i32 [ -558323010, %5 ], [ %16, %14 ], [ %58, %57 ], [ 0, %66 ], [ 0, %60 ]
  ret i32 %.0
}